target datalayout = "e-m:e-p270:32:32-p271:32:32-p272:64:64-i64:64-i128:128-f80:128-n8:16:32:64-S128"
target triple = "x86_64-pc-linux-gnu"

%struct.ident_t = type { i32, i32, i32, i32, ptr }

@1 = private unnamed_addr constant %struct.ident_t { i32 0, i32 514, i32 0, i32 22, ptr @0 }, align 8

; Function Attrs: norecurse nounwind uwtable
define internal void @_ZN5faiss14pairwise_L2sqrEllPKflS1_Pflll.omp_outlined.10(ptr noalias noundef %0, ptr noalias noundef %1, ptr noundef nonnull align 8 dereferenceable(8) %2, ptr noundef nonnull align 8 dereferenceable(8) %3, ptr noundef nonnull align 8 dereferenceable(8) %4, ptr noundef nonnull align 8 dereferenceable(8) %5, ptr noundef nonnull align 8 dereferenceable(8) %6, ptr noundef nonnull align 8 dereferenceable(8) %7, ptr noundef nonnull align 8 dereferenceable(8) %8, ptr noundef nonnull align 8 dereferenceable(8) %9) #1 personality ptr @__gxx_personality_v0 {
  %11 = alloca ptr, align 8
  %12 = alloca ptr, align 8
  %13 = alloca ptr, align 8
  %14 = alloca ptr, align 8
  %15 = alloca ptr, align 8
  %16 = alloca ptr, align 8
  %17 = alloca ptr, align 8
  %18 = alloca ptr, align 8
  %19 = alloca ptr, align 8
  %20 = alloca ptr, align 8
  %21 = alloca i64, align 8
  %22 = alloca i64, align 8
  %23 = alloca i64, align 8
  %24 = alloca i64, align 8
  %25 = alloca i64, align 8
  %26 = alloca i64, align 8
  %27 = alloca i64, align 8
  %28 = alloca i32, align 4
  %29 = alloca i64, align 8
  %30 = alloca float, align 4
  %31 = alloca i64, align 8
  store ptr %0, ptr %11, align 8
  store ptr %1, ptr %12, align 8
  store ptr %2, ptr %13, align 8
  store ptr %3, ptr %14, align 8
  store ptr %4, ptr %15, align 8
  store ptr %5, ptr %16, align 8
  store ptr %6, ptr %17, align 8
  store ptr %7, ptr %18, align 8
  store ptr %8, ptr %19, align 8
  store ptr %9, ptr %20, align 8
  %32 = load ptr, ptr %13, align 8
  %33 = load ptr, ptr %14, align 8
  %34 = load ptr, ptr %15, align 8
  %35 = load ptr, ptr %16, align 8
  %36 = load ptr, ptr %17, align 8
  %37 = load ptr, ptr %18, align 8
  %38 = load ptr, ptr %19, align 8
  %39 = load ptr, ptr %20, align 8
  %40 = load i64, ptr %32, align 8
  store i64 %40, ptr %22, align 8
  %41 = load i64, ptr %22, align 8
  %42 = sub nsw i64 %41, 1
  %43 = sdiv i64 %42, 1
  %44 = sub nsw i64 %43, 1
  store i64 %44, ptr %23, align 8
  store i64 1, ptr %24, align 8
  %45 = load i64, ptr %22, align 8
  %46 = icmp slt i64 1, %45
  br i1 %46, label %47, label %107

47:                                               ; preds = %10
  store i64 0, ptr %25, align 8
  %48 = load i64, ptr %23, align 8
  store i64 %48, ptr %26, align 8
  store i64 1, ptr %27, align 8
  store i32 0, ptr %28, align 4
  %49 = load ptr, ptr %11, align 8
  %50 = load i32, ptr %49, align 4
  call void @__kmpc_for_static_init_8(ptr @1, i32 %50, i32 34, ptr %28, ptr %25, ptr %26, ptr %27, i64 1, i64 1)
  %51 = load i64, ptr %26, align 8
  %52 = load i64, ptr %23, align 8
  %53 = icmp sgt i64 %51, %52
  br i1 %53, label %54, label %56

54:                                               ; preds = %47
  %55 = load i64, ptr %23, align 8
  br label %58

56:                                               ; preds = %47
  %57 = load i64, ptr %26, align 8
  br label %58

58:                                               ; preds = %56, %54
  %59 = phi i64 [ %55, %54 ], [ %57, %56 ]
  store i64 %59, ptr %26, align 8
  %60 = load i64, ptr %25, align 8
  store i64 %60, ptr %21, align 8
  br label %61

61:                                               ; preds = %100, %58
  %62 = load i64, ptr %21, align 8
  %63 = load i64, ptr %26, align 8
  %64 = icmp sle i64 %62, %63
  br i1 %64, label %65, label %103

65:                                               ; preds = %61
  %66 = load i64, ptr %21, align 8
  %67 = mul nsw i64 %66, 1
  %68 = add nsw i64 1, %67
  store i64 %68, ptr %29, align 8
  %69 = load ptr, ptr %33, align 8
  %70 = load i64, ptr %29, align 8
  %71 = load i64, ptr %34, align 8
  %72 = mul nsw i64 %70, %71
  %73 = getelementptr inbounds float, ptr %69, i64 %72
  %74 = load i64, ptr %35, align 8
  %75 = invoke noundef float @_ZN5faiss15fvec_norm_L2sqrEPKfm(ptr noundef %73, i64 noundef %74)
          to label %76 unwind label %108

76:                                               ; preds = %65
  store float %75, ptr %30, align 4
  store i64 0, ptr %31, align 8
  br label %77

77:                                               ; preds = %95, %76
  %78 = load i64, ptr %31, align 8
  %79 = load i64, ptr %36, align 8
  %80 = icmp slt i64 %78, %79
  br i1 %80, label %81, label %98

81:                                               ; preds = %77
  %82 = load float, ptr %30, align 4
  %83 = load ptr, ptr %39, align 8
  %84 = load i64, ptr %31, align 8
  %85 = getelementptr inbounds float, ptr %83, i64 %84
  %86 = load float, ptr %85, align 4
  %87 = fadd float %82, %86
  %88 = load ptr, ptr %37, align 8
  %89 = load i64, ptr %29, align 8
  %90 = load i64, ptr %38, align 8
  %91 = mul nsw i64 %89, %90
  %92 = load i64, ptr %31, align 8
  %93 = add nsw i64 %91, %92
  %94 = getelementptr inbounds float, ptr %88, i64 %93
  store float %87, ptr %94, align 4
  br label %95

95:                                               ; preds = %81
  %96 = load i64, ptr %31, align 8
  %97 = add nsw i64 %96, 1
  store i64 %97, ptr %31, align 8
  br label %77, !llvm.loop !104

98:                                               ; preds = %77
  br label %99

99:                                               ; preds = %98
  br label %100

100:                                              ; preds = %99
  %101 = load i64, ptr %21, align 8
  %102 = add nsw i64 %101, 1
  store i64 %102, ptr %21, align 8
  br label %61

103:                                              ; preds = %61
  br label %104

104:                                              ; preds = %103
  %105 = load ptr, ptr %11, align 8
  %106 = load i32, ptr %105, align 4
  call void @__kmpc_for_static_fini(ptr @1, i32 %106)
  br label %107

107:                                              ; preds = %104, %10
  ret void

108:                                              ; preds = %65
  %109 = landingpad { ptr, i32 }
          catch ptr null
  %110 = extractvalue { ptr, i32 } %109, 0
  call void @__clang_call_terminate(ptr %110) #17
  unreachable
}