; Function Attrs: norecurse nounwind uwtable
define internal void @_ZN5faiss14pairwise_L2sqrEllPKflS1_Pflll.omp_outlined.10(ptr noalias nocapture noundef readonly %0, ptr noalias nocapture readnone %1, ptr nocapture noundef nonnull readonly align 8 dereferenceable(8) %2, ptr nocapture noundef nonnull readonly align 8 dereferenceable(8) %3, ptr nocapture noundef nonnull readonly align 8 dereferenceable(8) %4, ptr nocapture noundef nonnull readonly align 8 dereferenceable(8) %5, ptr nocapture noundef nonnull readonly align 8 dereferenceable(8) %6, ptr nocapture noundef nonnull readonly align 8 dereferenceable(8) %7, ptr nocapture noundef nonnull readonly align 8 dereferenceable(8) %8, ptr nocapture noundef nonnull readonly align 8 dereferenceable(8) %9) #1 personality ptr @__gxx_personality_v0 {
  %11 = alloca i64, align 8
  %12 = alloca i64, align 8
  %13 = alloca i64, align 8
  %14 = alloca i32, align 4
  %15 = load i64, ptr %2, align 8
  %16 = icmp sgt i64 %15, 1
  br i1 %16, label %17, label %45

17:                                               ; preds = %10
  %18 = add nsw i64 %15, -2
  store i64 0, ptr %11, align 8
  store i64 %18, ptr %12, align 8
  store i64 1, ptr %13, align 8
  store i32 0, ptr %14, align 4
  %19 = load i32, ptr %0, align 4
  call void @__kmpc_for_static_init_8(ptr nonnull @1, i32 %19, i32 34, ptr nonnull %14, ptr nonnull %11, ptr nonnull %12, ptr nonnull %13, i64 1, i64 1)
  %20 = load i64, ptr %12, align 8
  %21 = call i64 @llvm.smin.i64(i64 %20, i64 %18)
  store i64 %21, ptr %12, align 8
  %22 = load i64, ptr %11, align 8
  %.not26 = icmp sgt i64 %22, %21
  br i1 %.not26, label %._crit_edge, label %.lr.ph28

.loopexit:                                        ; preds = %.lr.ph, %.preheader
  %23 = load i64, ptr %12, align 8
  %.not.not = icmp slt i64 %.02427, %23
  br i1 %.not.not, label %.lr.ph28, label %._crit_edge

.lr.ph28:                                         ; preds = %17, %.loopexit
  %.02427 = phi i64 [ %24, %.loopexit ], [ %22, %17 ]
  %24 = add nsw i64 %.02427, 1
  %25 = load ptr, ptr %3, align 8
  %26 = load i64, ptr %4, align 8
  %27 = mul nsw i64 %26, %24
  %28 = getelementptr inbounds float, ptr %25, i64 %27
  %29 = load i64, ptr %5, align 8
  %30 = invoke noundef float @_ZN5faiss15fvec_norm_L2sqrEPKfm(ptr noundef %28, i64 noundef %29)
          to label %.preheader unwind label %46

.preheader:                                       ; preds = %.lr.ph28
  %31 = load i64, ptr %6, align 8
  %32 = icmp sgt i64 %31, 0
  br i1 %32, label %.lr.ph, label %.loopexit

.lr.ph:                                           ; preds = %.preheader, %.lr.ph
  %.025 = phi i64 [ %42, %.lr.ph ], [ 0, %.preheader ]
  %33 = load ptr, ptr %9, align 8
  %34 = getelementptr inbounds float, ptr %33, i64 %.025
  %35 = load float, ptr %34, align 4
  %36 = fadd float %30, %35
  %37 = load ptr, ptr %7, align 8
  %38 = load i64, ptr %8, align 8
  %39 = mul nsw i64 %38, %24
  %40 = getelementptr float, ptr %37, i64 %39
  %41 = getelementptr float, ptr %40, i64 %.025
  store float %36, ptr %41, align 4
  %42 = add nuw nsw i64 %.025, 1
  %43 = load i64, ptr %6, align 8
  %44 = icmp slt i64 %42, %43
  br i1 %44, label %.lr.ph, label %.loopexit, !llvm.loop !141

._crit_edge:                                      ; preds = %.loopexit, %17
  call void @__kmpc_for_static_fini(ptr nonnull @1, i32 %19)
  br label %45

45:                                               ; preds = %._crit_edge, %10
  ret void

46:                                               ; preds = %.lr.ph28
  %47 = landingpad { ptr, i32 }
          catch ptr null
  %48 = extractvalue { ptr, i32 } %47, 0
  call void @__clang_call_terminate(ptr %48) #22
  unreachable
}